(iDentalClientBaseStructs
DentalDatabase
p1
(dp2
S'ClientsMap'
p3
(dp4
S'9e6a5c91baa01c2ef225517fa715a9de79cc619e'
p5
(iDentalClientBaseStructs
DentalClient
p6
(dp7
S'Firstname'
p8
S'Alaa'
p9
sS'Lastname'
p10
S'Zalzali'
p11
sS'acts'
p12
(lp13
(iDentalClientBaseStructs
DentalAct
p14
(dp15
S'Type'
p16
S'FULL-DENTURE'
p17
sS'Notes'
p18
S''
sS'Paid'
p19
I0
sS'Qty'
p20
I4
sS'Date'
p21
S'08/12/2016'
p22
sS'UnitPrice'
p23
I120
sS'PatientName'
p24
S'Lilia K.'
p25
sS'SubTotal'
p26
I480
sba(iDentalClientBaseStructs
DentalAct
p27
(dp28
g16
S'CERAMIC'
p29
sg18
S''
sg19
I0
sg20
I1
sg21
S'20/01/2017'
p30
sg23
F13.5
sg24
S'Tanjara S.'
p31
sg26
F13.5
sba(iDentalClientBaseStructs
DentalAct
p32
(dp33
g16
S'CCM'
p34
sg18
S''
sg19
I0
sg20
I6
sg21
S'02/02/2017'
p35
sg23
F13.5
sg24
S'Esaaf R.'
p36
sg26
F81
sba(iDentalClientBaseStructs
DentalAct
p37
(dp38
g16
S'FM'
p39
sg18
S''
sg19
I0
sg20
I6
sg21
S'07/02/2017'
p40
sg23
F11.6
sg24
S'Elham U.'
p41
sg26
F69.599999999999994
sba(iDentalClientBaseStructs
DentalAct
p42
(dp43
g16
S'FULL-DENTURE'
p44
sg18
S''
sg19
I0
sg20
I6
sg21
S'15/02/2017'
p45
sg23
F120
sg24
S'Samar K.'
p46
sg26
F720
sbasS'Phone'
p47
S'70885146'
p48
sS'payments'
p49
(lp50
(iDentalClientBaseStructs
DentalPayment
p51
(dp52
g21
S'16/01/2017'
p53
sS'Sum'
p54
F113
sba(iDentalClientBaseStructs
DentalPayment
p55
(dp56
g21
V05/02/2017
p57
sg54
F20
sba(iDentalClientBaseStructs
DentalPayment
p58
(dp59
g21
V05/02/2017
p60
sg54
F35
sba(iDentalClientBaseStructs
DentalPayment
p61
(dp62
g21
V05/02/2017
p63
sg54
F100
sbasS'Address'
p64
S''
sS'defaultprices'
p65
(dp66
S'CCM'
p67
F13.5
sS'CERAMIC'
p68
F13.5
sg39
F11.6
sg17
I120
ssS'Email'
p69
S''
sbsS'afbd64a9d4d441dcb68599672d3fb3a49fbc7746'
p70
(iDentalClientBaseStructs
DentalClient
p71
(dp72
g8
S'Samir'
p73
sg10
S'Kassir'
p74
sg12
(lp75
(iDentalClientBaseStructs
DentalAct
p76
(dp77
g16
g68
sg18
S''
sg19
I0
sg20
I2
sg21
S'05/02/2015'
p78
sg23
F13.5
sg24
S'Sahar K.'
p79
sg26
F27
sba(iDentalClientBaseStructs
DentalAct
p80
(dp81
g16
g17
sg18
S''
sg19
I0
sg20
I10
sg21
S'25/03/2015'
p82
sg23
I120
sg24
S'Ali M.'
p83
sg26
I1200
sba(iDentalClientBaseStructs
DentalAct
p84
(dp85
g16
g67
sg18
S''
sg19
I0
sg20
I10
sg21
S'25/01/2017'
p86
sg23
F13.5
sg24
g79
sg26
F135
sba(iDentalClientBaseStructs
DentalAct
p87
(dp88
g16
g17
sg18
S''
sg19
I0
sg20
I10
sg21
S'30/01/2017'
p89
sg23
I120
sg24
g79
sg26
I1200
sba(iDentalClientBaseStructs
DentalAct
p90
(dp91
g16
S'FM'
p92
sg18
S''
sg19
I0
sg20
I4
sg21
V05/02/2017
p93
sg23
F11.6
sg24
S'qwert'
p94
sg26
F46.399999999999999
sbasg47
S'03789366'
p95
sg49
(lp96
(iDentalClientBaseStructs
DentalPayment
p97
(dp98
g21
S'05/02/2015'
p99
sg54
F150
sba(iDentalClientBaseStructs
DentalPayment
p100
(dp101
g21
S'06/02/2016'
p102
sg54
F250
sba(iDentalClientBaseStructs
DentalPayment
p103
(dp104
g21
S'22/02/2017'
p105
sg54
F450
sbasg64
S''
sg65
(dp106
g67
F13.5
sg68
F13.5
sg39
F11.6
sg17
I120
ssg69
S''
sbsS'9c415d04db944868ce265d8031794df70d9f3417'
p107
(iDentalClientBaseStructs
DentalClient
p108
(dp109
g8
S'Khalil'
p110
sg10
S'Gebran'
p111
sg12
(lp112
(iDentalClientBaseStructs
DentalAct
p113
(dp114
g16
g68
sg18
S''
sg19
I0
sg20
I1
sg21
S'01/01/2016'
p115
sg23
F13.5
sg24
S'Rabih A.'
p116
sg26
F13.5
sbasg47
S'71555448'
p117
sg49
(lp118
(iDentalClientBaseStructs
DentalPayment
p119
(dp120
g21
S'23/01/2017'
p121
sg54
F220
sbasg64
S'p'
sg65
(dp122
g17
I120
sg39
F11.6
ssg69
S''
sbssb.