(iDentalClientBaseStructs
DentalDatabase
p1
(dp2
S'ClientsMap'
p3
(dp4
S'9e6a5c91baa01c2ef225517fa715a9de79cc619e'
p5
(iDentalClientBaseStructs
DentalClient
p6
(dp7
S'Firstname'
p8
S'Alaa'
p9
sS'Lastname'
p10
S'Zalzali'
p11
sS'acts'
p12
(lp13
(iDentalClientBaseStructs
DentalAct
p14
(dp15
S'Type'
p16
S'FULL-DENTURE'
p17
sS'Notes'
p18
S''
sS'Paid'
p19
I0
sS'Qty'
p20
I4
sS'Date'
p21
S'08/12/2016'
p22
sS'UnitPrice'
p23
I120
sS'PatientName'
p24
S'Lilia K.'
p25
sS'SubTotal'
p26
I480
sba(iDentalClientBaseStructs
DentalAct
p27
(dp28
g16
S'CERAMIC'
p29
sg18
S''
sg19
I0
sg20
I1
sg21
S'20/01/2017'
p30
sg23
F13.5
sg24
S'Tanjara S.'
p31
sg26
F13.5
sba(iDentalClientBaseStructs
DentalAct
p32
(dp33
g16
S'CCM'
p34
sg18
S''
sg19
I0
sg20
I6
sg21
S'22/12/2016'
p35
sg23
F13.5
sg24
S'Esaaf R.'
p36
sg26
F81
sba(iDentalClientBaseStructs
DentalAct
p37
(dp38
g16
S'FM'
p39
sg18
S''
sg19
I0
sg20
I6
sg21
g35
sg23
F11.6
sg24
S'Elham U.'
p40
sg26
F69.599999999999994
sba(iDentalClientBaseStructs
DentalAct
p41
(dp42
g16
S'FULL-DENTURE'
p43
sg18
S''
sg19
I0
sg20
I6
sg21
S'28/01/2017'
p44
sg23
F120
sg24
S'Samar K.'
p45
sg26
F720
sba(iDentalClientBaseStructs
DentalAct
p46
(dp47
g16
S'FM'
p48
sg18
S''
sg19
I0
sg20
I6
sg21
V29/01/2017
p49
sg23
F11.6
sg24
S''
sg26
F69.599999999999994
sbasS'Phone'
p50
S'70885146'
p51
sS'payments'
p52
(lp53
(iDentalClientBaseStructs
DentalPayment
p54
(dp55
g21
V27/01/2017
p56
sS'Sum'
p57
F25.600000000000001
sba(iDentalClientBaseStructs
DentalPayment
p58
(dp59
g21
V28/01/2017
p60
sg57
F25.399999999999999
sba(iDentalClientBaseStructs
DentalPayment
p61
(dp62
g21
V28/01/2017
p63
sg57
F23
sba(iDentalClientBaseStructs
DentalPayment
p64
(dp65
g21
V29/01/2017
p66
sg57
F666
sbasS'Address'
p67
S''
sS'defaultprices'
p68
(dp69
S'CCM'
p70
F13.5
sg29
F13.5
sg39
F11.6
sg17
F120
ssS'Email'
p71
S''
sbsS'a2423cba41b588517ca17862e2d792c3ec46363b'
p72
(iDentalClientBaseStructs
DentalClient
p73
(dp74
g8
S'aaa'
p75
sg10
S'bbb'
p76
sg12
(lp77
(iDentalClientBaseStructs
DentalAct
p78
(dp79
g16
S'FM'
p80
sg18
S''
sg19
I0
sg20
I4
sg21
V28/01/2017
p81
sg23
F11.6
sg24
S'fdsfsfd'
p82
sg26
F46.399999999999999
sba(iDentalClientBaseStructs
DentalAct
p83
(dp84
g16
S''
sg18
S''
sg19
I0
sg20
I0
sg21
V28/01/2017
p85
sg23
F0
sg24
S''
sg26
F0
sba(iDentalClientBaseStructs
DentalAct
p86
(dp87
g16
S''
sg18
S''
sg19
I0
sg20
I0
sg21
S'28/01/2017'
p88
sg23
F0
sg24
S''
sg26
F0
sbasg50
S'65479874'
p89
sg52
(lp90
sg67
S'111'
p91
sg68
(dp92
VCCM
p93
F13.5
sVCERAMIC
p94
F13.5
sVFM
p95
F11.6
sVFULL-DENTURE
p96
F120
ssg71
S'333'
p97
sbsS'7649e8f867d0d63842d5b994043ca6e807b55455'
p98
(iDentalClientBaseStructs
DentalClient
p99
(dp100
g8
S'Khalil'
p101
sg10
S'Gebran'
p102
sg12
(lp103
(iDentalClientBaseStructs
DentalAct
p104
(dp105
g16
g29
sg18
S''
sg19
I0
sg20
I1
sg21
S'01/01/2016'
p106
sg23
F13.5
sg24
S'Rabih A.'
p107
sg26
F13.5
sbasg50
S'71555444'
p108
sg52
(lp109
(iDentalClientBaseStructs
DentalPayment
p110
(dp111
g21
S'24/01/2017'
p112
sg57
F220
sbasg67
S''
sg68
(dp113
g70
F13.5
sg29
F13.5
sg39
F11.6
sg17
I120
ssg71
S''
sbsS'afbd64a9d4d441dcb68599672d3fb3a49fbc7746'
p114
(iDentalClientBaseStructs
DentalClient
p115
(dp116
g8
S'Samir'
p117
sg10
S'Kassir'
p118
sg12
(lp119
(iDentalClientBaseStructs
DentalAct
p120
(dp121
g16
g29
sg18
S''
sg19
I0
sg20
I2
sg21
S'05/02/2015'
p122
sg23
F13.5
sg24
S'Sahar K.'
p123
sg26
F27
sba(iDentalClientBaseStructs
DentalAct
p124
(dp125
g16
g17
sg18
S''
sg19
I0
sg20
I10
sg21
S'25/03/2015'
p126
sg23
I120
sg24
S'Ali M.'
p127
sg26
I1200
sba(iDentalClientBaseStructs
DentalAct
p128
(dp129
g16
g70
sg18
S''
sg19
I0
sg20
I10
sg21
S'25/01/2017'
p130
sg23
F13.5
sg24
g123
sg26
F135
sba(iDentalClientBaseStructs
DentalAct
p131
(dp132
g16
g17
sg18
S''
sg19
I0
sg20
I10
sg21
S'30/01/2017'
p133
sg23
F110
sg24
g123
sg26
F1100
sbasg50
S'03789366'
p134
sg52
(lp135
(iDentalClientBaseStructs
DentalPayment
p136
(dp137
g21
g122
sg57
F150
sba(iDentalClientBaseStructs
DentalPayment
p138
(dp139
g21
S'06/02/2016'
p140
sg57
F250
sba(iDentalClientBaseStructs
DentalPayment
p141
(dp142
g21
S''
sg57
F450
sbasg67
S''
sg68
(dp143
g70
F13.5
sg29
F13.5
sg39
F11.6
sg17
F110
ssg71
S''
sbsS'fecb54f67eb30504256b63676a9f530640226a75'
p144
(iDentalClientBaseStructs
DentalClient
p145
(dp146
g8
S'Ali'
p147
sg10
S'Saad'
p148
sg12
(lp149
(iDentalClientBaseStructs
DentalAct
p150
(dp151
g16
S''
sg18
S''
sg19
I0
sg20
I0
sg21
V28/01/2017
p152
sg23
F0
sg24
S'KHara'
p153
sg26
F0
sbasg50
S'01631714'
p154
sg52
(lp155
(iDentalClientBaseStructs
DentalPayment
p156
(dp157
g21
V28/01/2017
p158
sg57
F99
sbasg67
S'asdasd'
p159
sg68
(dp160
sg71
S'kjlkjdsf'
p161
sbssb.