(iDentalClientBaseStructs
DentalDatabase
p1
(dp2
S'ClientsMap'
p3
(dp4
S'9e6a5c91baa01c2ef225517fa715a9de79cc619e'
p5
(iDentalClientBaseStructs
DentalClient
p6
(dp7
S'Firstname'
p8
S'Alaa'
p9
sS'Lastname'
p10
S'Zalzali'
p11
sS'acts'
p12
(lp13
(iDentalClientBaseStructs
DentalAct
p14
(dp15
S'Type'
p16
S'CERAMIC'
p17
sS'Notes'
p18
S''
sS'Paid'
p19
I0
sS'Qty'
p20
I1
sS'Date'
p21
S'20/01/2017'
p22
sS'UnitPrice'
p23
F13.5
sS'PatientName'
p24
S'Tanjara S.'
p25
sS'SubTotal'
p26
F13.5
sba(iDentalClientBaseStructs
DentalAct
p27
(dp28
g16
S'CCM'
p29
sg18
S''
sg19
I0
sg20
I6
sg21
S'22/12/2016'
p30
sg23
F13.5
sg24
S'Esaaf R.'
p31
sg26
F81
sba(iDentalClientBaseStructs
DentalAct
p32
(dp33
g16
S'FULL-DENTURE'
p34
sg18
S''
sg19
I0
sg20
I6
sg21
S'28/01/2017'
p35
sg23
F120
sg24
S'Samar K.'
p36
sg26
F720
sba(iDentalClientBaseStructs
DentalAct
p37
(dp38
g16
S''
sg18
S''
sg19
I0
sg20
I1
sg21
V01/02/2017
p39
sg23
F0
sg24
S''
sg26
F0
sbasS'Phone'
p40
S'70885146'
p41
sS'payments'
p42
(lp43
(iDentalClientBaseStructs
DentalPayment
p44
(dp45
g21
V27/01/2017
p46
sS'Sum'
p47
F25.600000000000001
sba(iDentalClientBaseStructs
DentalPayment
p48
(dp49
g21
V28/01/2017
p50
sg47
F25.399999999999999
sba(iDentalClientBaseStructs
DentalPayment
p51
(dp52
g21
V28/01/2017
p53
sg47
F23
sba(iDentalClientBaseStructs
DentalPayment
p54
(dp55
g21
V29/01/2017
p56
sg47
F666
sbasS'Address'
p57
S''
sS'defaultprices'
p58
(dp59
g17
F13.5
sVKAKA
p60
F999.44399999999996
ssS'Email'
p61
S''
sbsS'7649e8f867d0d63842d5b994043ca6e807b55455'
p62
(iDentalClientBaseStructs
DentalClient
p63
(dp64
g8
S'Khalil'
p65
sg10
S'Gebran'
p66
sg12
(lp67
(iDentalClientBaseStructs
DentalAct
p68
(dp69
g16
g17
sg18
S''
sg19
I0
sg20
I1
sg21
S'01/01/2016'
p70
sg23
F13.5
sg24
S'Rabih A.'
p71
sg26
F13.5
sba(iDentalClientBaseStructs
DentalAct
p72
(dp73
g16
S'CCM'
p74
sg18
S''
sg19
I0
sg20
I1
sg21
V30/01/2017
p75
sg23
F69.900000000000006
sg24
S''
sg26
F69.900000000000006
sbasg40
S'71555444'
p76
sg42
(lp77
(iDentalClientBaseStructs
DentalPayment
p78
(dp79
g21
S'24/01/2017'
p80
sg47
F220
sbasg57
S''
sg58
(dp81
g17
F13.5
sg60
F999.44399999999996
ssg61
S''
sbsS'afbd64a9d4d441dcb68599672d3fb3a49fbc7746'
p82
(iDentalClientBaseStructs
DentalClient
p83
(dp84
g8
S'Samir'
p85
sg10
S'Kassir'
p86
sg12
(lp87
(iDentalClientBaseStructs
DentalAct
p88
(dp89
g16
g17
sg18
S''
sg19
I0
sg20
I2
sg21
S'05/02/2015'
p90
sg23
F13.5
sg24
S'Sahar K.'
p91
sg26
F27
sba(iDentalClientBaseStructs
DentalAct
p92
(dp93
g16
S'FULL-DENTURE'
p94
sg18
S''
sg19
I0
sg20
I10
sg21
S'25/03/2015'
p95
sg23
I120
sg24
S'Ali M.'
p96
sg26
I1200
sba(iDentalClientBaseStructs
DentalAct
p97
(dp98
g16
S'CCM'
p99
sg18
S''
sg19
I0
sg20
I10
sg21
S'25/01/2017'
p100
sg23
F13.5
sg24
g91
sg26
F135
sba(iDentalClientBaseStructs
DentalAct
p101
(dp102
g16
g94
sg18
S''
sg19
I0
sg20
I10
sg21
S'30/01/2017'
p103
sg23
F110
sg24
g91
sg26
F1100
sbasg40
S'03789366'
p104
sg42
(lp105
(iDentalClientBaseStructs
DentalPayment
p106
(dp107
g21
g90
sg47
F150
sba(iDentalClientBaseStructs
DentalPayment
p108
(dp109
g21
S'06/02/2016'
p110
sg47
F250
sba(iDentalClientBaseStructs
DentalPayment
p111
(dp112
g21
S''
sg47
F450
sbasg57
S''
sg58
(dp113
g17
F13.5
sVKAKA
p114
F999.44399999999996
ssg61
S''
sbsS'fecb54f67eb30504256b63676a9f530640226a75'
p115
(iDentalClientBaseStructs
DentalClient
p116
(dp117
g8
S'Ali'
p118
sg10
S'Saad'
p119
sg12
(lp120
(iDentalClientBaseStructs
DentalAct
p121
(dp122
g16
S'CCM'
p123
sg18
S''
sg19
I0
sg20
I0
sg21
V28/01/2017
p124
sg23
F250
sg24
S'KHara'
p125
sg26
F0
sbasg40
S'01631714'
p126
sg42
(lp127
(iDentalClientBaseStructs
DentalPayment
p128
(dp129
g21
V28/01/2017
p130
sg47
F99
sbasg57
S'asdasd'
p131
sg58
(dp132
VCERAMIC
p133
F13.5
sg60
F999.44399999999996
ssg61
S'kjlkjdsf'
p134
sbssb.