(iDentalClientBaseStructs
DentalDatabase
p1
(dp2
S'ClientsMap'
p3
(dp4
S'7649e8f867d0d63842d5b994043ca6e807b55455'
p5
(iDentalClientBaseStructs
DentalClient
p6
(dp7
S'Firstname'
p8
S'Khalil'
p9
sS'Lastname'
p10
S'Gebran'
p11
sS'acts'
p12
(lp13
(iDentalClientBaseStructs
DentalAct
p14
(dp15
S'Type'
p16
S'CERAMIC'
p17
sS'Notes'
p18
S''
sS'Paid'
p19
I0
sS'Qty'
p20
I1
sS'Date'
p21
S'01/01/2016'
p22
sS'UnitPrice'
p23
F13.5
sS'PatientName'
p24
S'Rabih A.'
p25
sS'SubTotal'
p26
F13.5
sba(iDentalClientBaseStructs
DentalAct
p27
(dp28
g16
S'CCM'
p29
sg18
S''
sg19
I0
sg20
I1
sg21
V30/01/2017
p30
sg23
F69.900000000000006
sg24
S''
sg26
F69.900000000000006
sbasS'Phone'
p31
S'71555444'
p32
sS'payments'
p33
(lp34
(iDentalClientBaseStructs
DentalPayment
p35
(dp36
g21
S'24/01/2017'
p37
sS'Sum'
p38
F220
sbasS'Address'
p39
S''
sS'defaultprices'
p40
(dp41
g17
F13.5
sVKAKA
p42
F999.44399999999996
ssS'Email'
p43
S''
sbsS'afbd64a9d4d441dcb68599672d3fb3a49fbc7746'
p44
(iDentalClientBaseStructs
DentalClient
p45
(dp46
g8
S'Samir'
p47
sg10
S'Kassir'
p48
sg12
(lp49
(iDentalClientBaseStructs
DentalAct
p50
(dp51
g16
g17
sg18
S''
sg19
I0
sg20
I2
sg21
S'05/02/2015'
p52
sg23
F13.5
sg24
S'Sahar K.'
p53
sg26
F27
sba(iDentalClientBaseStructs
DentalAct
p54
(dp55
g16
S'FULL-DENTURE'
p56
sg18
S''
sg19
I0
sg20
I10
sg21
S'25/03/2015'
p57
sg23
I120
sg24
S'Ali M.'
p58
sg26
I1200
sba(iDentalClientBaseStructs
DentalAct
p59
(dp60
g16
S'CCM'
p61
sg18
S''
sg19
I0
sg20
I10
sg21
S'25/01/2017'
p62
sg23
F13.5
sg24
g53
sg26
F135
sba(iDentalClientBaseStructs
DentalAct
p63
(dp64
g16
g56
sg18
S''
sg19
I0
sg20
I10
sg21
S'30/01/2017'
p65
sg23
F110
sg24
g53
sg26
F1100
sbasg31
S'03789366'
p66
sg33
(lp67
(iDentalClientBaseStructs
DentalPayment
p68
(dp69
g21
g52
sg38
F150
sba(iDentalClientBaseStructs
DentalPayment
p70
(dp71
g21
S'06/02/2016'
p72
sg38
F250
sba(iDentalClientBaseStructs
DentalPayment
p73
(dp74
g21
S''
sg38
F450
sbasg39
S''
sg40
(dp75
g17
F13.5
sVKAKA
p76
F999.44399999999996
ssg43
S''
sbsS'fecb54f67eb30504256b63676a9f530640226a75'
p77
(iDentalClientBaseStructs
DentalClient
p78
(dp79
g8
S'Ali'
p80
sg10
S'Saad'
p81
sg12
(lp82
(iDentalClientBaseStructs
DentalAct
p83
(dp84
g16
S'CCM'
p85
sg18
S''
sg19
I0
sg20
I0
sg21
V28/01/2017
p86
sg23
F250
sg24
S'KHara'
p87
sg26
F0
sba(iDentalClientBaseStructs
DentalAct
p88
(dp89
g16
S'CCM'
p90
sg18
S''
sg19
I0
sg20
I1
sg21
V30/01/2017
p91
sg23
F250
sg24
S''
sg26
F250
sbasg31
S'01631714'
p92
sg33
(lp93
(iDentalClientBaseStructs
DentalPayment
p94
(dp95
g21
V28/01/2017
p96
sg38
F99
sbasg39
S'asdasd'
p97
sg40
(dp98
VCERAMIC
p99
F13.5
sg42
F999.44399999999996
ssg43
S'kjlkjdsf'
p100
sbsS'9e6a5c91baa01c2ef225517fa715a9de79cc619e'
p101
(iDentalClientBaseStructs
DentalClient
p102
(dp103
g8
S'Alaa'
p104
sg10
S'Zalzali'
p105
sg12
(lp106
(iDentalClientBaseStructs
DentalAct
p107
(dp108
g16
g56
sg18
S''
sg19
I0
sg20
I4
sg21
S'08/12/2016'
p109
sg23
I120
sg24
S'Lilia K.'
p110
sg26
I480
sba(iDentalClientBaseStructs
DentalAct
p111
(dp112
g16
g17
sg18
S''
sg19
I0
sg20
I1
sg21
S'20/01/2017'
p113
sg23
F13.5
sg24
S'Tanjara S.'
p114
sg26
F13.5
sba(iDentalClientBaseStructs
DentalAct
p115
(dp116
g16
S'CCM'
p117
sg18
S''
sg19
I0
sg20
I6
sg21
S'22/12/2016'
p118
sg23
F13.5
sg24
S'Esaaf R.'
p119
sg26
F81
sba(iDentalClientBaseStructs
DentalAct
p120
(dp121
g16
S'FM'
p122
sg18
S''
sg19
I0
sg20
I6
sg21
g118
sg23
F11.6
sg24
S'Elham U.'
p123
sg26
F69.599999999999994
sba(iDentalClientBaseStructs
DentalAct
p124
(dp125
g16
S'FULL-DENTURE'
p126
sg18
S''
sg19
I0
sg20
I6
sg21
S'28/01/2017'
p127
sg23
F120
sg24
S'Samar K.'
p128
sg26
F720
sba(iDentalClientBaseStructs
DentalAct
p129
(dp130
g16
S'FULL-DENTURE'
p131
sg18
S''
sg19
I0
sg20
I6
sg21
V29/01/2017
p132
sg23
F120
sg24
S''
sg26
F720
sbasg31
S'70885146'
p133
sg33
(lp134
(iDentalClientBaseStructs
DentalPayment
p135
(dp136
g21
V27/01/2017
p137
sg38
F25.600000000000001
sba(iDentalClientBaseStructs
DentalPayment
p138
(dp139
g21
V28/01/2017
p140
sg38
F25.399999999999999
sba(iDentalClientBaseStructs
DentalPayment
p141
(dp142
g21
V28/01/2017
p143
sg38
F23
sba(iDentalClientBaseStructs
DentalPayment
p144
(dp145
g21
V29/01/2017
p146
sg38
F666
sbasg39
S''
sg40
(dp147
g17
F13.5
sg42
F999.44399999999996
ssg43
S''
sbssb.