(iDentalClientBaseStructs
DentalDatabase
p1
(dp2
S'ClientsMap'
p3
(dp4
S'9e6a5c91baa01c2ef225517fa715a9de79cc619e'
p5
(iDentalClientBaseStructs
DentalClient
p6
(dp7
S'Firstname'
p8
S'Alaa'
p9
sS'Lastname'
p10
S'Zalzali'
p11
sS'acts'
p12
(lp13
(iDentalClientBaseStructs
DentalAct
p14
(dp15
S'Type'
p16
S'FULL-DENTURE'
p17
sS'Notes'
p18
S''
sS'Paid'
p19
I0
sS'Qty'
p20
I4
sS'Date'
p21
S'08/12/2016'
p22
sS'UnitPrice'
p23
I120
sS'PatientName'
p24
S'Lilia K.'
p25
sS'SubTotal'
p26
I480
sba(iDentalClientBaseStructs
DentalAct
p27
(dp28
g16
S'CERAMIC'
p29
sg18
S''
sg19
I0
sg20
I1
sg21
S'20/01/2017'
p30
sg23
F13.5
sg24
S'Tanjara S.'
p31
sg26
F13.5
sba(iDentalClientBaseStructs
DentalAct
p32
(dp33
g16
S'CCM'
p34
sg18
S''
sg19
I0
sg20
I6
sg21
S'22/12/2016'
p35
sg23
F13.5
sg24
S'Esaaf R.'
p36
sg26
F81
sba(iDentalClientBaseStructs
DentalAct
p37
(dp38
g16
S'FM'
p39
sg18
S''
sg19
I0
sg20
I6
sg21
g35
sg23
F11.6
sg24
S'Elham U.'
p40
sg26
F69.599999999999994
sba(iDentalClientBaseStructs
DentalAct
p41
(dp42
g16
g17
sg18
S''
sg19
I0
sg20
I6
sg21
S'28/01/2017'
p43
sg23
F120
sg24
S'Samar K.'
p44
sg26
F720
sbasS'Phone'
p45
S'70885146'
p46
sS'payments'
p47
(lp48
(iDentalClientBaseStructs
DentalPayment
p49
(dp50
g21
V27/01/2017
p51
sS'Sum'
p52
F25.600000000000001
sba(iDentalClientBaseStructs
DentalPayment
p53
(dp54
g21
V28/01/2017
p55
sg52
F25.399999999999999
sba(iDentalClientBaseStructs
DentalPayment
p56
(dp57
g21
V28/01/2017
p58
sg52
F23
sbasS'Address'
p59
S''
sS'defaultprices'
p60
(dp61
g34
F13.5
sg29
F13.5
sg39
F11.6
sg17
F120
ssS'Email'
p62
S''
sbsS'7649e8f867d0d63842d5b994043ca6e807b55455'
p63
(iDentalClientBaseStructs
DentalClient
p64
(dp65
g8
S'Khalil'
p66
sg10
S'Gebran'
p67
sg12
(lp68
(iDentalClientBaseStructs
DentalAct
p69
(dp70
g16
g29
sg18
S''
sg19
I0
sg20
I1
sg21
S'01/01/2016'
p71
sg23
F13.5
sg24
S'Rabih A.'
p72
sg26
F13.5
sbasg45
S'71555444'
p73
sg47
(lp74
(iDentalClientBaseStructs
DentalPayment
p75
(dp76
g21
S'23/01/2017'
p77
sg52
F220
sbasg59
S''
sg60
(dp78
g34
F13.5
sg29
F13.5
sg39
F11.6
sg17
I120
ssg62
S''
sbsS'afbd64a9d4d441dcb68599672d3fb3a49fbc7746'
p79
(iDentalClientBaseStructs
DentalClient
p80
(dp81
g8
S'Samir'
p82
sg10
S'Kassir'
p83
sg12
(lp84
(iDentalClientBaseStructs
DentalAct
p85
(dp86
g16
g29
sg18
S''
sg19
I0
sg20
I2
sg21
S'05/02/2015'
p87
sg23
F13.5
sg24
S'Sahar K.'
p88
sg26
F27
sba(iDentalClientBaseStructs
DentalAct
p89
(dp90
g16
g17
sg18
S''
sg19
I0
sg20
I10
sg21
S'25/03/2015'
p91
sg23
I120
sg24
S'Ali M.'
p92
sg26
I1200
sba(iDentalClientBaseStructs
DentalAct
p93
(dp94
g16
g34
sg18
S''
sg19
I0
sg20
I10
sg21
S'25/01/2017'
p95
sg23
F13.5
sg24
g88
sg26
F135
sba(iDentalClientBaseStructs
DentalAct
p96
(dp97
g16
g17
sg18
S''
sg19
I0
sg20
I10
sg21
S'30/01/2017'
p98
sg23
F110
sg24
g88
sg26
F1100
sbasg45
S'03789366'
p99
sg47
(lp100
(iDentalClientBaseStructs
DentalPayment
p101
(dp102
g21
g87
sg52
F150
sba(iDentalClientBaseStructs
DentalPayment
p103
(dp104
g21
S'06/02/2016'
p105
sg52
F250
sba(iDentalClientBaseStructs
DentalPayment
p106
(dp107
g21
S'06/07/2017'
p108
sg52
F450
sbasg59
S''
sg60
(dp109
g34
F13.5
sg29
F13.5
sg39
F11.6
sg17
F110
ssg62
S''
sbsS'fecb54f67eb30504256b63676a9f530640226a75'
p110
(iDentalClientBaseStructs
DentalClient
p111
(dp112
g8
S'Ali'
p113
sg10
S'Saad'
p114
sg12
(lp115
(iDentalClientBaseStructs
DentalAct
p116
(dp117
g16
S''
sg18
S''
sg19
I0
sg20
I0
sg21
V28/01/2017
p118
sg23
F0
sg24
S'KHara'
p119
sg26
F0
sbasg45
S'01631714'
p120
sg47
(lp121
(iDentalClientBaseStructs
DentalPayment
p122
(dp123
g21
V28/01/2017
p124
sg52
F99
sbasg59
S'asdasd'
p125
sg60
(dp126
sg62
S'kjlkjdsf'
p127
sbssb.