(iDentalClientBaseStructs
DentalDatabase
p1
(dp2
S'ClientsMap'
p3
(dp4
S'9e6a5c91baa01c2ef225517fa715a9de79cc619e'
p5
(iDentalClientBaseStructs
DentalClient
p6
(dp7
S'Firstname'
p8
S'Alaa'
p9
sS'Lastname'
p10
S'Zalzali'
p11
sS'acts'
p12
(lp13
(iDentalClientBaseStructs
DentalAct
p14
(dp15
S'Type'
p16
S'FULL-DENTURE'
p17
sS'Notes'
p18
S''
sS'Paid'
p19
I0
sS'Qty'
p20
I4
sS'Date'
p21
S'08/12/2016'
p22
sS'UnitPrice'
p23
I120
sS'PatientName'
p24
S'Lilia K.'
p25
sS'SubTotal'
p26
I480
sba(iDentalClientBaseStructs
DentalAct
p27
(dp28
g16
S'CERAMIC'
p29
sg18
S''
sg19
I0
sg20
I1
sg21
S'20/01/2017'
p30
sg23
F13.5
sg24
S'Tanjara S.'
p31
sg26
F13.5
sba(iDentalClientBaseStructs
DentalAct
p32
(dp33
g16
S'CCM'
p34
sg18
S''
sg19
I0
sg20
I6
sg21
S'02/02/2017'
p35
sg23
F13.5
sg24
S'Esaaf R.'
p36
sg26
F81
sba(iDentalClientBaseStructs
DentalAct
p37
(dp38
g16
S'FM'
p39
sg18
S''
sg19
I0
sg20
I6
sg21
S'07/02/2017'
p40
sg23
F11.6
sg24
S'Elham U.'
p41
sg26
F69.599999999999994
sba(iDentalClientBaseStructs
DentalAct
p42
(dp43
g16
S'FULL-DENTURE'
p44
sg18
S''
sg19
I0
sg20
I6
sg21
S'15/02/2017'
p45
sg23
F120
sg24
S'Samar K.'
p46
sg26
F720
sbasS'Phone'
p47
S'70885146'
p48
sS'payments'
p49
(lp50
(iDentalClientBaseStructs
DentalPayment
p51
(dp52
g21
S'16/01/2017'
p53
sS'Sum'
p54
F113
sba(iDentalClientBaseStructs
DentalPayment
p55
(dp56
g21
V05/02/2017
p57
sg54
F20
sba(iDentalClientBaseStructs
DentalPayment
p58
(dp59
g21
V05/02/2017
p60
sg54
F35
sba(iDentalClientBaseStructs
DentalPayment
p61
(dp62
g21
V05/02/2017
p63
sg54
F100
sbasS'Address'
p64
S''
sS'defaultprices'
p65
(dp66
S'CCM'
p67
F13.5
sS'CERAMIC'
p68
F13.5
sg39
F11.6
sg17
I120
ssS'Email'
p69
S''
sbsS'7649e8f867d0d63842d5b994043ca6e807b55455'
p70
(iDentalClientBaseStructs
DentalClient
p71
(dp72
g8
S'Khalil'
p73
sg10
S'Gebran'
p74
sg12
(lp75
(iDentalClientBaseStructs
DentalAct
p76
(dp77
g16
g68
sg18
S''
sg19
I0
sg20
I1
sg21
S'01/01/2016'
p78
sg23
F13.5
sg24
S'Rabih A.'
p79
sg26
F13.5
sbasg47
S'71555444'
p80
sg49
(lp81
(iDentalClientBaseStructs
DentalPayment
p82
(dp83
g21
S'23/01/2017'
p84
sg54
F220
sbasg64
S''
sg65
(dp85
g67
F13.5
sg68
F13.5
sg39
F11.6
sg17
I120
ssg69
S''
sbsS'afbd64a9d4d441dcb68599672d3fb3a49fbc7746'
p86
(iDentalClientBaseStructs
DentalClient
p87
(dp88
g8
S'Samir'
p89
sg10
S'Kassir'
p90
sg12
(lp91
(iDentalClientBaseStructs
DentalAct
p92
(dp93
g16
g68
sg18
S''
sg19
I0
sg20
I2
sg21
S'05/02/2015'
p94
sg23
F13.5
sg24
S'Sahar K.'
p95
sg26
F27
sba(iDentalClientBaseStructs
DentalAct
p96
(dp97
g16
g17
sg18
S''
sg19
I0
sg20
I10
sg21
S'25/03/2015'
p98
sg23
I120
sg24
S'Ali M.'
p99
sg26
I1200
sba(iDentalClientBaseStructs
DentalAct
p100
(dp101
g16
g67
sg18
S''
sg19
I0
sg20
I10
sg21
S'25/01/2017'
p102
sg23
F13.5
sg24
g95
sg26
F135
sba(iDentalClientBaseStructs
DentalAct
p103
(dp104
g16
g17
sg18
S''
sg19
I0
sg20
I10
sg21
S'30/01/2017'
p105
sg23
I120
sg24
g95
sg26
I1200
sba(iDentalClientBaseStructs
DentalAct
p106
(dp107
g16
S'FM'
p108
sg18
S''
sg19
I0
sg20
I4
sg21
V05/02/2017
p109
sg23
F11.6
sg24
S'qwert'
p110
sg26
F46.399999999999999
sbasg47
S'03789366'
p111
sg49
(lp112
(iDentalClientBaseStructs
DentalPayment
p113
(dp114
g21
S'05/02/2015'
p115
sg54
F150
sba(iDentalClientBaseStructs
DentalPayment
p116
(dp117
g21
S'06/02/2016'
p118
sg54
F250
sba(iDentalClientBaseStructs
DentalPayment
p119
(dp120
g21
S'22/02/2017'
p121
sg54
F450
sbasg64
S''
sg65
(dp122
g67
F13.5
sg68
F13.5
sg39
F11.6
sg17
I120
ssg69
S''
sbssb.