(iDentalClientBaseStructs
DentalDatabase
p1
(dp2
S'ClientsMap'
p3
(dp4
S'9e6a5c91baa01c2ef225517fa715a9de79cc619e'
p5
(iDentalClientBaseStructs
DentalClient
p6
(dp7
S'Firstname'
p8
S'Alaa'
p9
sS'Lastname'
p10
S'Zalzali'
p11
sS'acts'
p12
(lp13
(iDentalClientBaseStructs
DentalAct
p14
(dp15
S'Type'
p16
S'FULL-DENTURE'
p17
sS'Notes'
p18
S''
sS'Paid'
p19
I0
sS'Qty'
p20
I4
sS'Date'
p21
S'08/12/2016'
p22
sS'UnitPrice'
p23
I120
sS'PatientName'
p24
S'Lilia K.'
p25
sS'SubTotal'
p26
I480
sba(iDentalClientBaseStructs
DentalAct
p27
(dp28
g16
S'CERAMIC'
p29
sg18
S''
sg19
I0
sg20
I1
sg21
S'20/01/2017'
p30
sg23
F13.5
sg24
S'Tanjara S.'
p31
sg26
F13.5
sba(iDentalClientBaseStructs
DentalAct
p32
(dp33
g16
S'CCM'
p34
sg18
S''
sg19
I0
sg20
I6
sg21
S'22/12/2016'
p35
sg23
F13.5
sg24
S'Esaaf R.'
p36
sg26
F81
sba(iDentalClientBaseStructs
DentalAct
p37
(dp38
g16
S'FM'
p39
sg18
S''
sg19
I0
sg20
I6
sg21
g35
sg23
F11.6
sg24
S'Elham U.'
p40
sg26
F69.599999999999994
sba(iDentalClientBaseStructs
DentalAct
p41
(dp42
g16
g17
sg18
S''
sg19
I0
sg20
I6
sg21
S'28/01/2017'
p43
sg23
I120
sg24
S'Samar K.'
p44
sg26
I720
sba(iDentalClientBaseStructs
DentalAct
p45
(dp46
g16
S'CERAMIC'
p47
sg18
S''
sg19
I0
sg20
I5
sg21
V05/02/2017
p48
sg23
F13.5
sg24
S''
sg26
F67.5
sbasS'Phone'
p49
S'70885146'
p50
sS'payments'
p51
(lp52
(iDentalClientBaseStructs
DentalPayment
p53
(dp54
g21
S'16/01/2017'
p55
sS'Sum'
p56
F113
sbasS'Address'
p57
S''
sS'defaultprices'
p58
(dp59
g34
F13.5
sg29
F13.5
sg39
F11.6
sg17
I120
ssS'Email'
p60
S''
sbsS'7649e8f867d0d63842d5b994043ca6e807b55455'
p61
(iDentalClientBaseStructs
DentalClient
p62
(dp63
g8
S'Khalil'
p64
sg10
S'Gebran'
p65
sg12
(lp66
(iDentalClientBaseStructs
DentalAct
p67
(dp68
g16
g29
sg18
S''
sg19
I0
sg20
I1
sg21
S'01/01/2016'
p69
sg23
F13.5
sg24
S'Rabih A.'
p70
sg26
F13.5
sbasg49
S'71555444'
p71
sg51
(lp72
(iDentalClientBaseStructs
DentalPayment
p73
(dp74
g21
S'23/01/2017'
p75
sg56
F220
sbasg57
S''
sg58
(dp76
g34
F13.5
sg29
F13.5
sg39
F11.6
sg17
I120
ssg60
S''
sbsS'afbd64a9d4d441dcb68599672d3fb3a49fbc7746'
p77
(iDentalClientBaseStructs
DentalClient
p78
(dp79
g8
S'Samir'
p80
sg10
S'Kassir'
p81
sg12
(lp82
(iDentalClientBaseStructs
DentalAct
p83
(dp84
g16
g29
sg18
S''
sg19
I0
sg20
I2
sg21
S'05/02/2015'
p85
sg23
F13.5
sg24
S'Sahar K.'
p86
sg26
F27
sba(iDentalClientBaseStructs
DentalAct
p87
(dp88
g16
g17
sg18
S''
sg19
I0
sg20
I10
sg21
S'25/03/2015'
p89
sg23
I120
sg24
S'Ali M.'
p90
sg26
I1200
sba(iDentalClientBaseStructs
DentalAct
p91
(dp92
g16
g34
sg18
S''
sg19
I0
sg20
I10
sg21
S'25/01/2017'
p93
sg23
F13.5
sg24
g86
sg26
F135
sba(iDentalClientBaseStructs
DentalAct
p94
(dp95
g16
g17
sg18
S''
sg19
I0
sg20
I10
sg21
S'30/01/2017'
p96
sg23
I120
sg24
g86
sg26
I1200
sbasg49
S'03789366'
p97
sg51
(lp98
(iDentalClientBaseStructs
DentalPayment
p99
(dp100
g21
g85
sg56
F150
sba(iDentalClientBaseStructs
DentalPayment
p101
(dp102
g21
S'06/02/2016'
p103
sg56
F250
sba(iDentalClientBaseStructs
DentalPayment
p104
(dp105
g21
S'06/07/2017'
p106
sg56
F450
sbasg57
S''
sg58
(dp107
g34
F13.5
sg29
F13.5
sg39
F11.6
sg17
I120
ssg60
S''
sbsS'31bd68a97f0262b6996715c34c230031f04153f0'
p108
(iDentalClientBaseStructs
DentalClient
p109
(dp110
g8
S'qwerewt'
p111
sg10
S'gfdssdfe'
p112
sg12
(lp113
(iDentalClientBaseStructs
DentalAct
p114
(dp115
g16
S'FM'
p116
sg18
S''
sg19
I0
sg20
I4
sg21
V05/02/2017
p117
sg23
F11.6
sg24
S'ffff'
p118
sg26
F46.399999999999999
sba(iDentalClientBaseStructs
DentalAct
p119
(dp120
g16
S'CERAMIC'
p121
sg18
S''
sg19
I0
sg20
I3
sg21
V05/02/2017
p122
sg23
F13.5
sg24
S''
sg26
F40.5
sbasg49
S'136548'
p123
sg51
(lp124
(iDentalClientBaseStructs
DentalPayment
p125
(dp126
g21
V05/02/2017
p127
sg56
F15
sbasg57
S'asdfwe'
p128
sg58
(dp129
S'CCM'
p130
F13.5
sS'CERAMIC'
p131
F13.5
sS'FM'
p132
F11.6
sS'FULL-DENTURE'
p133
F120
ssg60
S'sdf'
p134
sbssb.