(iDentalClientBaseStructs
DentalDatabase
p1
(dp2
S'ClientsMap'
p3
(dp4
S'9e6a5c91baa01c2ef225517fa715a9de79cc619e'
p5
(iDentalClientBaseStructs
DentalClient
p6
(dp7
S'Firstname'
p8
S'Alaa'
p9
sS'Lastname'
p10
S'Zalzali'
p11
sS'acts'
p12
(lp13
(iDentalClientBaseStructs
DentalAct
p14
(dp15
S'Type'
p16
S'CERAMIC'
p17
sS'Notes'
p18
S''
sS'Paid'
p19
I0
sS'Qty'
p20
I1
sS'Date'
p21
S'20/01/2017'
p22
sS'UnitPrice'
p23
F13.5
sS'PatientName'
p24
S'Tanjara S.'
p25
sS'SubTotal'
p26
F13.5
sba(iDentalClientBaseStructs
DentalAct
p27
(dp28
g16
S'CCM'
p29
sg18
S''
sg19
I0
sg20
I6
sg21
S'22/12/2016'
p30
sg23
F13.5
sg24
S'Esaaf R.'
p31
sg26
F81
sba(iDentalClientBaseStructs
DentalAct
p32
(dp33
g16
S'FULL-DENTURE'
p34
sg18
S''
sg19
I0
sg20
I6
sg21
S'28/01/2017'
p35
sg23
F120
sg24
S'Samar K.'
p36
sg26
F720
sbasS'Phone'
p37
S'70885146'
p38
sS'payments'
p39
(lp40
(iDentalClientBaseStructs
DentalPayment
p41
(dp42
g21
V27/01/2017
p43
sS'Sum'
p44
F25.600000000000001
sba(iDentalClientBaseStructs
DentalPayment
p45
(dp46
g21
V28/01/2017
p47
sg44
F25.399999999999999
sba(iDentalClientBaseStructs
DentalPayment
p48
(dp49
g21
V28/01/2017
p50
sg44
F23
sba(iDentalClientBaseStructs
DentalPayment
p51
(dp52
g21
V29/01/2017
p53
sg44
F666
sbasS'Address'
p54
S''
sS'defaultprices'
p55
(dp56
g17
F13.5
sVKAKA
p57
F999.44399999999996
ssS'Email'
p58
S''
sbsS'7649e8f867d0d63842d5b994043ca6e807b55455'
p59
(iDentalClientBaseStructs
DentalClient
p60
(dp61
g8
S'Khalil'
p62
sg10
S'Gebran'
p63
sg12
(lp64
(iDentalClientBaseStructs
DentalAct
p65
(dp66
g16
g17
sg18
S''
sg19
I0
sg20
I1
sg21
S'01/01/2016'
p67
sg23
F13.5
sg24
S'Rabih A.'
p68
sg26
F13.5
sba(iDentalClientBaseStructs
DentalAct
p69
(dp70
g16
S'CCM'
p71
sg18
S''
sg19
I0
sg20
I1
sg21
V30/01/2017
p72
sg23
F69.900000000000006
sg24
S''
sg26
F69.900000000000006
sbasg37
S'71555444'
p73
sg39
(lp74
(iDentalClientBaseStructs
DentalPayment
p75
(dp76
g21
S'24/01/2017'
p77
sg44
F220
sbasg54
S''
sg55
(dp78
g17
F13.5
sg57
F999.44399999999996
ssg58
S''
sbsS'afbd64a9d4d441dcb68599672d3fb3a49fbc7746'
p79
(iDentalClientBaseStructs
DentalClient
p80
(dp81
g8
S'Samir'
p82
sg10
S'Kassir'
p83
sg12
(lp84
(iDentalClientBaseStructs
DentalAct
p85
(dp86
g16
g17
sg18
S''
sg19
I0
sg20
I2
sg21
S'05/02/2015'
p87
sg23
F13.5
sg24
S'Sahar K.'
p88
sg26
F27
sba(iDentalClientBaseStructs
DentalAct
p89
(dp90
g16
S'FULL-DENTURE'
p91
sg18
S''
sg19
I0
sg20
I10
sg21
S'25/03/2015'
p92
sg23
I120
sg24
S'Ali M.'
p93
sg26
I1200
sba(iDentalClientBaseStructs
DentalAct
p94
(dp95
g16
S'CCM'
p96
sg18
S''
sg19
I0
sg20
I10
sg21
S'25/01/2017'
p97
sg23
F13.5
sg24
g88
sg26
F135
sba(iDentalClientBaseStructs
DentalAct
p98
(dp99
g16
g91
sg18
S''
sg19
I0
sg20
I10
sg21
S'30/01/2017'
p100
sg23
F110
sg24
g88
sg26
F1100
sbasg37
S'03789366'
p101
sg39
(lp102
(iDentalClientBaseStructs
DentalPayment
p103
(dp104
g21
g87
sg44
F150
sba(iDentalClientBaseStructs
DentalPayment
p105
(dp106
g21
S'06/02/2016'
p107
sg44
F250
sba(iDentalClientBaseStructs
DentalPayment
p108
(dp109
g21
S''
sg44
F450
sbasg54
S''
sg55
(dp110
g17
F13.5
sVKAKA
p111
F999.44399999999996
ssg58
S''
sbsS'fecb54f67eb30504256b63676a9f530640226a75'
p112
(iDentalClientBaseStructs
DentalClient
p113
(dp114
g8
S'Ali'
p115
sg10
S'Saad'
p116
sg12
(lp117
(iDentalClientBaseStructs
DentalAct
p118
(dp119
g16
S'CCM'
p120
sg18
S''
sg19
I0
sg20
I0
sg21
V28/01/2017
p121
sg23
F250
sg24
S'KHara'
p122
sg26
F0
sbasg37
S'01631714'
p123
sg39
(lp124
(iDentalClientBaseStructs
DentalPayment
p125
(dp126
g21
V28/01/2017
p127
sg44
F99
sbasg54
S'asdasd'
p128
sg55
(dp129
VCERAMIC
p130
F13.5
sg57
F999.44399999999996
ssg58
S'kjlkjdsf'
p131
sbssb.