(iDentalClientBaseStructs
DentalDatabase
p1
(dp2
S'ClientsMap'
p3
(dp4
S'7649e8f867d0d63842d5b994043ca6e807b55455'
p5
(iDentalClientBaseStructs
DentalClient
p6
(dp7
S'Firstname'
p8
S'Khalil'
p9
sS'Lastname'
p10
S'Gebran'
p11
sS'acts'
p12
(lp13
(iDentalClientBaseStructs
DentalAct
p14
(dp15
S'Type'
p16
S'CERAMIC'
p17
sS'Notes'
p18
S''
sS'Paid'
p19
I0
sS'Qty'
p20
I1
sS'Date'
p21
S'01/01/2016'
p22
sS'UnitPrice'
p23
F13.5
sS'PatientName'
p24
S'Rabih A.'
p25
sS'SubTotal'
p26
F13.5
sba(iDentalClientBaseStructs
DentalAct
p27
(dp28
g16
S'CCM'
p29
sg18
S''
sg19
I0
sg20
I1
sg21
V30/01/2017
p30
sg23
F26.899999999999999
sg24
S''
sg26
F26.899999999999999
sbasS'Phone'
p31
S'71555444'
p32
sS'payments'
p33
(lp34
(iDentalClientBaseStructs
DentalPayment
p35
(dp36
g21
S'24/01/2017'
p37
sS'Sum'
p38
F220
sbasS'Address'
p39
S''
sS'defaultprices'
p40
(dp41
S'CCM'
p42
F26.899999999999999
sg17
F13.5
sVKAKA
p43
F999.44399999999996
sV___SDFSF___FSDF__
p44
F4251.3000000000002
sS'FULL-DENTURE'
p45
I120
sVDA
p46
F4
ssS'Email'
p47
S''
sbsS'eca7a5f15ddace573b88eda5553881b456907684'
p48
(iDentalClientBaseStructs
DentalClient
p49
(dp50
g8
S'_____ASD'
p51
sg10
S'____ASDF'
p52
sg12
(lp53
(iDentalClientBaseStructs
DentalAct
p54
(dp55
g16
S'CCM'
p56
sg18
S''
sg19
I0
sg20
I1
sg21
V30/01/2017
p57
sg23
F13.5
sg24
S'xdffd'
p58
sg26
F13.5
sbasg31
S'65498712'
p59
sg33
(lp60
sg39
S'piupiupoiuwer'
p61
sg40
(dp62
VCERAMIC
p63
F13.5
sVKAKA
p64
F999.44399999999996
sV___SDFSF___FSDF__
p65
F4251.3000000000002
sVFULL-DENTURE
p66
F120
sVDA
p67
F4
sVCCM
p68
F13.5
ssg47
S'sdfjsdfjdskfadfd'
p69
sbsS'afbd64a9d4d441dcb68599672d3fb3a49fbc7746'
p70
(iDentalClientBaseStructs
DentalClient
p71
(dp72
g8
S'Samir'
p73
sg10
S'Kassir'
p74
sg12
(lp75
(iDentalClientBaseStructs
DentalAct
p76
(dp77
g16
g17
sg18
S''
sg19
I0
sg20
I2
sg21
S'05/02/2015'
p78
sg23
F13.5
sg24
S'Sahar K.'
p79
sg26
F27
sba(iDentalClientBaseStructs
DentalAct
p80
(dp81
g16
g45
sg18
S''
sg19
I0
sg20
I10
sg21
S'25/03/2015'
p82
sg23
I120
sg24
S'Ali M.'
p83
sg26
I1200
sba(iDentalClientBaseStructs
DentalAct
p84
(dp85
g16
g42
sg18
S''
sg19
I0
sg20
I10
sg21
S'25/01/2017'
p86
sg23
F13.5
sg24
g79
sg26
F135
sba(iDentalClientBaseStructs
DentalAct
p87
(dp88
g16
g45
sg18
S''
sg19
I0
sg20
I10
sg21
S'30/01/2017'
p89
sg23
F110
sg24
g79
sg26
F1100
sbasg31
S'03789366'
p90
sg33
(lp91
(iDentalClientBaseStructs
DentalPayment
p92
(dp93
g21
g78
sg38
F150
sba(iDentalClientBaseStructs
DentalPayment
p94
(dp95
g21
S'06/02/2016'
p96
sg38
F250
sba(iDentalClientBaseStructs
DentalPayment
p97
(dp98
g21
S''
sg38
F450
sbasg39
S''
sg40
(dp99
g42
F13.5
sg17
F13.5
sS'FM'
p100
F11.6
sg45
F110
ssg47
S''
sbsS'fecb54f67eb30504256b63676a9f530640226a75'
p101
(iDentalClientBaseStructs
DentalClient
p102
(dp103
g8
S'Ali'
p104
sg10
S'Saad'
p105
sg12
(lp106
(iDentalClientBaseStructs
DentalAct
p107
(dp108
g16
S'CCM'
p109
sg18
S''
sg19
I0
sg20
I0
sg21
V28/01/2017
p110
sg23
F250
sg24
S'KHara'
p111
sg26
F0
sba(iDentalClientBaseStructs
DentalAct
p112
(dp113
g16
S'CCM'
p114
sg18
S''
sg19
I0
sg20
I1
sg21
V30/01/2017
p115
sg23
F250
sg24
S''
sg26
F250
sbasg31
S'01631714'
p116
sg33
(lp117
(iDentalClientBaseStructs
DentalPayment
p118
(dp119
g21
V28/01/2017
p120
sg38
F99
sbasg39
S'asdasd'
p121
sg40
(dp122
VFULL-DENTURE
p123
F120
sg43
F999.44399999999996
sV___SDFSF___FSDF__
p124
F4251.3000000000002
sVCERAMIC
p125
F13.5
sg67
F4
sVCCM
p126
F250
ssg47
S'kjlkjdsf'
p127
sbsS'9e6a5c91baa01c2ef225517fa715a9de79cc619e'
p128
(iDentalClientBaseStructs
DentalClient
p129
(dp130
g8
S'Alaa'
p131
sg10
S'Zalzali'
p132
sg12
(lp133
(iDentalClientBaseStructs
DentalAct
p134
(dp135
g16
g45
sg18
S''
sg19
I0
sg20
I4
sg21
S'08/12/2016'
p136
sg23
I120
sg24
S'Lilia K.'
p137
sg26
I480
sba(iDentalClientBaseStructs
DentalAct
p138
(dp139
g16
g17
sg18
S''
sg19
I0
sg20
I1
sg21
S'20/01/2017'
p140
sg23
F13.5
sg24
S'Tanjara S.'
p141
sg26
F13.5
sba(iDentalClientBaseStructs
DentalAct
p142
(dp143
g16
S'CCM'
p144
sg18
S''
sg19
I0
sg20
I6
sg21
S'22/12/2016'
p145
sg23
F13.5
sg24
S'Esaaf R.'
p146
sg26
F81
sba(iDentalClientBaseStructs
DentalAct
p147
(dp148
g16
g100
sg18
S''
sg19
I0
sg20
I6
sg21
g145
sg23
F11.6
sg24
S'Elham U.'
p149
sg26
F69.599999999999994
sba(iDentalClientBaseStructs
DentalAct
p150
(dp151
g16
S'FULL-DENTURE'
p152
sg18
S''
sg19
I0
sg20
I6
sg21
S'28/01/2017'
p153
sg23
F120
sg24
S'Samar K.'
p154
sg26
F720
sba(iDentalClientBaseStructs
DentalAct
p155
(dp156
g16
S'FULL-DENTURE'
p157
sg18
S''
sg19
I0
sg20
I6
sg21
V29/01/2017
p158
sg23
F120
sg24
S''
sg26
F720
sbasg31
S'70885146'
p159
sg33
(lp160
(iDentalClientBaseStructs
DentalPayment
p161
(dp162
g21
V27/01/2017
p163
sg38
F25.600000000000001
sba(iDentalClientBaseStructs
DentalPayment
p164
(dp165
g21
V28/01/2017
p166
sg38
F25.399999999999999
sba(iDentalClientBaseStructs
DentalPayment
p167
(dp168
g21
V28/01/2017
p169
sg38
F23
sba(iDentalClientBaseStructs
DentalPayment
p170
(dp171
g21
V29/01/2017
p172
sg38
F666
sbasg39
S''
sg40
(dp173
g45
F120
sg43
F999.44399999999996
sV___SDFSF___FSDF__
p174
F4251.3000000000002
sg17
F13.5
sg67
F4
sg42
F13.5
ssg47
S''
sbsS'61bd46d1279edbd4e920882cb265f660b8dc7b95'
p175
(iDentalClientBaseStructs
DentalClient
p176
(dp177
g8
S'asdf'
p178
sg10
S'asdf'
p179
sg12
(lp180
(iDentalClientBaseStructs
DentalAct
p181
(dp182
g16
S'FULL-DENTURE'
p183
sg18
S''
sg19
I0
sg20
I1
sg21
V29/01/2017
p184
sg23
F120
sg24
S''
sg26
F120
sba(iDentalClientBaseStructs
DentalAct
p185
(dp186
g16
S'CCM'
p187
sg18
S''
sg19
I0
sg20
I1
sg21
V29/01/2017
p188
sg23
F13.5
sg24
S''
sg26
F13.5
sbasg31
S'45678912'
p189
sg33
(lp190
(iDentalClientBaseStructs
DentalPayment
p191
(dp192
g21
S'29/01/2017'
p193
sg38
F50
sbasg39
S'asdasdf'
p194
sg40
(dp195
VFULL-DENTURE
p196
F120
sVKAKA
p197
F999.44399999999996
sg65
F4251.3000000000002
sVCERAMIC
p198
F13.5
sg67
F4
sVCCM
p199
F13.5
ssg47
S'adsfasdf'
p200
sbsS'a2423cba41b588517ca17862e2d792c3ec46363b'
p201
(iDentalClientBaseStructs
DentalClient
p202
(dp203
g8
S'aaa'
p204
sg10
S'bbb'
p205
sg12
(lp206
(iDentalClientBaseStructs
DentalAct
p207
(dp208
g16
S'FM'
p209
sg18
S''
sg19
I0
sg20
I4
sg21
V28/01/2017
p210
sg23
F11.6
sg24
S'fdsfsfd'
p211
sg26
F46.399999999999999
sba(iDentalClientBaseStructs
DentalAct
p212
(dp213
g16
S''
sg18
S''
sg19
I0
sg20
I0
sg21
V28/01/2017
p214
sg23
F0
sg24
S''
sg26
F0
sba(iDentalClientBaseStructs
DentalAct
p215
(dp216
g16
S''
sg18
S''
sg19
I0
sg20
I0
sg21
S'28/01/2017'
p217
sg23
F0
sg24
S''
sg26
F0
sbasg31
S'65479874'
p218
sg33
(lp219
sg39
S'111'
p220
sg40
(dp221
VCCM
p222
F13.5
sVCERAMIC
p223
F13.5
sVFM
p224
F11.6
sVFULL-DENTURE
p225
F120
ssg47
S'333'
p226
sbssb.