(iDentalClientBaseStructs
DentalDatabase
p1
(dp2
S'ClientsMap'
p3
(dp4
S'9e6a5c91baa01c2ef225517fa715a9de79cc619e'
p5
(iDentalClientBaseStructs
DentalClient
p6
(dp7
S'Firstname'
p8
S'Alaa'
p9
sS'Lastname'
p10
S'Zalzali'
p11
sS'acts'
p12
(lp13
(iDentalClientBaseStructs
DentalAct
p14
(dp15
S'Type'
p16
S'FULL-DENTURE'
p17
sS'Notes'
p18
S''
sS'Paid'
p19
I0
sS'Qty'
p20
I4
sS'Date'
p21
S'08/12/2016'
p22
sS'UnitPrice'
p23
I120
sS'PatientName'
p24
S'Lilia K.'
p25
sS'SubTotal'
p26
I480
sba(iDentalClientBaseStructs
DentalAct
p27
(dp28
g16
S'CERAMIC'
p29
sg18
S''
sg19
I0
sg20
I1
sg21
S'20/01/2017'
p30
sg23
F13.5
sg24
S'Tanjara S.'
p31
sg26
F13.5
sba(iDentalClientBaseStructs
DentalAct
p32
(dp33
g16
S'CCM'
p34
sg18
S''
sg19
I0
sg20
I6
sg21
S'22/12/2016'
p35
sg23
F13.5
sg24
S'Esaaf R.'
p36
sg26
F81
sba(iDentalClientBaseStructs
DentalAct
p37
(dp38
g16
S'FM'
p39
sg18
S''
sg19
I0
sg20
I6
sg21
g35
sg23
F11.6
sg24
S'Elham U.'
p40
sg26
F69.599999999999994
sba(iDentalClientBaseStructs
DentalAct
p41
(dp42
g16
g17
sg18
S''
sg19
I0
sg20
I6
sg21
S'28/01/2017'
p43
sg23
F120
sg24
S'Samar K.'
p44
sg26
F720
sbasS'Phone'
p45
S'70885146'
p46
sS'payments'
p47
(lp48
(iDentalClientBaseStructs
DentalPayment
p49
(dp50
g21
V27/01/2017
p51
sS'Sum'
p52
F25.600000000000001
sba(iDentalClientBaseStructs
DentalPayment
p53
(dp54
g21
V28/01/2017
p55
sg52
F25.399999999999999
sba(iDentalClientBaseStructs
DentalPayment
p56
(dp57
g21
V28/01/2017
p58
sg52
F23
sbasS'Address'
p59
S''
sS'defaultprices'
p60
(dp61
S'CCM'
p62
F13.5
sg29
F13.5
sg39
F11.6
sg17
F120
ssS'Email'
p63
S''
sbsS'a2423cba41b588517ca17862e2d792c3ec46363b'
p64
(iDentalClientBaseStructs
DentalClient
p65
(dp66
g8
S'aaa'
p67
sg10
S'bbb'
p68
sg12
(lp69
(iDentalClientBaseStructs
DentalAct
p70
(dp71
g16
S'FM'
p72
sg18
S''
sg19
I0
sg20
I4
sg21
V28/01/2017
p73
sg23
F11.6
sg24
S'fdsfsfd'
p74
sg26
F46.399999999999999
sba(iDentalClientBaseStructs
DentalAct
p75
(dp76
g16
S''
sg18
S''
sg19
I0
sg20
I0
sg21
V28/01/2017
p77
sg23
F0
sg24
S''
sg26
F0
sba(iDentalClientBaseStructs
DentalAct
p78
(dp79
g16
S''
sg18
S''
sg19
I0
sg20
I0
sg21
S'28/01/2017'
p80
sg23
F0
sg24
S''
sg26
F0
sbasg45
S'65479874'
p81
sg47
(lp82
sg59
S'111'
p83
sg60
(dp84
VCCM
p85
F13.5
sVCERAMIC
p86
F13.5
sVFM
p87
F11.6
sVFULL-DENTURE
p88
F120
ssg63
S'333'
p89
sbsS'7649e8f867d0d63842d5b994043ca6e807b55455'
p90
(iDentalClientBaseStructs
DentalClient
p91
(dp92
g8
S'Khalil'
p93
sg10
S'Gebran'
p94
sg12
(lp95
(iDentalClientBaseStructs
DentalAct
p96
(dp97
g16
g29
sg18
S''
sg19
I0
sg20
I1
sg21
S'01/01/2016'
p98
sg23
F13.5
sg24
S'Rabih A.'
p99
sg26
F13.5
sbasg45
S'71555444'
p100
sg47
(lp101
(iDentalClientBaseStructs
DentalPayment
p102
(dp103
g21
S'23/01/2017'
p104
sg52
F220
sbasg59
S''
sg60
(dp105
g62
F13.5
sg29
F13.5
sg39
F11.6
sg17
I120
ssg63
S''
sbsS'afbd64a9d4d441dcb68599672d3fb3a49fbc7746'
p106
(iDentalClientBaseStructs
DentalClient
p107
(dp108
g8
S'Samir'
p109
sg10
S'Kassir'
p110
sg12
(lp111
(iDentalClientBaseStructs
DentalAct
p112
(dp113
g16
g29
sg18
S''
sg19
I0
sg20
I2
sg21
S'05/02/2015'
p114
sg23
F13.5
sg24
S'Sahar K.'
p115
sg26
F27
sba(iDentalClientBaseStructs
DentalAct
p116
(dp117
g16
g17
sg18
S''
sg19
I0
sg20
I10
sg21
S'25/03/2015'
p118
sg23
I120
sg24
S'Ali M.'
p119
sg26
I1200
sba(iDentalClientBaseStructs
DentalAct
p120
(dp121
g16
g62
sg18
S''
sg19
I0
sg20
I10
sg21
S'25/01/2017'
p122
sg23
F13.5
sg24
g115
sg26
F135
sba(iDentalClientBaseStructs
DentalAct
p123
(dp124
g16
g17
sg18
S''
sg19
I0
sg20
I10
sg21
S'30/01/2017'
p125
sg23
F110
sg24
g115
sg26
F1100
sbasg45
S'03789366'
p126
sg47
(lp127
(iDentalClientBaseStructs
DentalPayment
p128
(dp129
g21
g114
sg52
F150
sba(iDentalClientBaseStructs
DentalPayment
p130
(dp131
g21
S'06/02/2016'
p132
sg52
F250
sba(iDentalClientBaseStructs
DentalPayment
p133
(dp134
g21
S''
sg52
F450
sbasg59
S''
sg60
(dp135
g62
F13.5
sg29
F13.5
sg39
F11.6
sg17
F110
ssg63
S''
sbsS'fecb54f67eb30504256b63676a9f530640226a75'
p136
(iDentalClientBaseStructs
DentalClient
p137
(dp138
g8
S'Ali'
p139
sg10
S'Saad'
p140
sg12
(lp141
(iDentalClientBaseStructs
DentalAct
p142
(dp143
g16
S''
sg18
S''
sg19
I0
sg20
I0
sg21
V28/01/2017
p144
sg23
F0
sg24
S'KHara'
p145
sg26
F0
sbasg45
S'01631714'
p146
sg47
(lp147
(iDentalClientBaseStructs
DentalPayment
p148
(dp149
g21
V28/01/2017
p150
sg52
F99
sbasg59
S'asdasd'
p151
sg60
(dp152
sg63
S'kjlkjdsf'
p153
sbssb.